; Function Attrs: mustprogress nofree norecurse nosync nounwind willreturn memory(read, inaccessiblemem: none) uwtable
define noundef i32 @_ZNK6icu_7517UCharsTrieBuilder17countElementUnitsEiii(ptr nocapture noundef nonnull readonly align 8 dereferenceable(112) %this, i32 noundef %start, i32 noundef %limit, i32 noundef %unitIndex) unnamed_addr #7 align 2 {
entry:
  %elements = getelementptr inbounds i8, ptr %this, i64 80
  %0 = load ptr, ptr %elements, align 8
  %add.i = add i32 %unitIndex, 1
  %fUnion.i.i.i.i.i = getelementptr inbounds i8, ptr %this, i64 24
  %1 = load i16, ptr %fUnion.i.i.i.i.i, align 8
  %cmp.i.i.i.i.i = icmp slt i16 %1, 0
  %2 = ashr i16 %1, 5
  %shr.i.i.i.i.i = sext i16 %2 to i32
  %fLength.i.i.i.i = getelementptr inbounds i8, ptr %this, i64 28
  %3 = load i32, ptr %fLength.i.i.i.i, align 4
  %cond.i.i.i.i = select i1 %cmp.i.i.i.i.i, i32 %3, i32 %shr.i.i.i.i.i
  %4 = and i16 %1, 2
  %tobool.not.i.i.i.i18 = icmp eq i16 %4, 0
  %fBuffer.i.i.i.i19 = getelementptr inbounds i8, ptr %this, i64 26
  %fArray.i.i.i.i20 = getelementptr inbounds i8, ptr %this, i64 40
  %5 = load ptr, ptr %fArray.i.i.i.i20, align 8
  %cond.i2.i.i.i21 = select i1 %tobool.not.i.i.i.i18, ptr %5, ptr %fBuffer.i.i.i.i19
  %6 = sext i32 %limit to i64
  br label %do.body

do.body:                                          ; preds = %while.end, %entry
  %i.0 = phi i32 [ %start, %entry ], [ %11, %while.end ]
  %length.0 = phi i32 [ 0, %entry ], [ %inc10, %while.end ]
  %idxprom = sext i32 %i.0 to i64
  %arrayidx = getelementptr inbounds %"class.icu_75::UCharsTrieElement", ptr %0, i64 %idxprom
  %7 = load i32, ptr %arrayidx, align 4
  %add2.i = add i32 %7, %add.i
  %cmp.i.i.i = icmp ugt i32 %cond.i.i.i.i, %add2.i
  br i1 %cmp.i.i.i, label %if.then.i.i.i, label %_ZNK6icu_7517UCharsTrieElement6charAtEiRKNS_13UnicodeStringE.exit

if.then.i.i.i:                                    ; preds = %do.body
  %idxprom.i.i.i = sext i32 %add2.i to i64
  %arrayidx.i.i.i = getelementptr inbounds i16, ptr %cond.i2.i.i.i21, i64 %idxprom.i.i.i
  %8 = load i16, ptr %arrayidx.i.i.i, align 2
  br label %_ZNK6icu_7517UCharsTrieElement6charAtEiRKNS_13UnicodeStringE.exit

_ZNK6icu_7517UCharsTrieElement6charAtEiRKNS_13UnicodeStringE.exit: ; preds = %do.body, %if.then.i.i.i
  %retval.0.i.i.i = phi i16 [ %8, %if.then.i.i.i ], [ -1, %do.body ]
  br label %while.cond

while.cond:                                       ; preds = %_ZNK6icu_7517UCharsTrieElement6charAtEiRKNS_13UnicodeStringE.exit24, %_ZNK6icu_7517UCharsTrieElement6charAtEiRKNS_13UnicodeStringE.exit
  %indvars.iv = phi i64 [ %indvars.iv.next, %_ZNK6icu_7517UCharsTrieElement6charAtEiRKNS_13UnicodeStringE.exit24 ], [ %idxprom, %_ZNK6icu_7517UCharsTrieElement6charAtEiRKNS_13UnicodeStringE.exit ]
  %indvars.iv.next = add nsw i64 %indvars.iv, 1
  %cmp = icmp slt i64 %indvars.iv.next, %6
  br i1 %cmp, label %land.rhs, label %do.end

land.rhs:                                         ; preds = %while.cond
  %arrayidx4 = getelementptr inbounds %"class.icu_75::UCharsTrieElement", ptr %0, i64 %indvars.iv.next
  %9 = load i32, ptr %arrayidx4, align 4
  %add2.i9 = add i32 %9, %add.i
  %cmp.i.i.i15 = icmp ugt i32 %cond.i.i.i.i, %add2.i9
  br i1 %cmp.i.i.i15, label %if.then.i.i.i17, label %_ZNK6icu_7517UCharsTrieElement6charAtEiRKNS_13UnicodeStringE.exit24

if.then.i.i.i17:                                  ; preds = %land.rhs
  %idxprom.i.i.i22 = sext i32 %add2.i9 to i64
  %arrayidx.i.i.i23 = getelementptr inbounds i16, ptr %cond.i2.i.i.i21, i64 %idxprom.i.i.i22
  %10 = load i16, ptr %arrayidx.i.i.i23, align 2
  br label %_ZNK6icu_7517UCharsTrieElement6charAtEiRKNS_13UnicodeStringE.exit24

_ZNK6icu_7517UCharsTrieElement6charAtEiRKNS_13UnicodeStringE.exit24: ; preds = %land.rhs, %if.then.i.i.i17
  %retval.0.i.i.i16 = phi i16 [ %10, %if.then.i.i.i17 ], [ -1, %land.rhs ]
  %cmp8 = icmp eq i16 %retval.0.i.i.i, %retval.0.i.i.i16
  br i1 %cmp8, label %while.cond, label %while.end, !llvm.loop !18

while.end:                                        ; preds = %_ZNK6icu_7517UCharsTrieElement6charAtEiRKNS_13UnicodeStringE.exit24
  %11 = trunc i64 %indvars.iv.next to i32
  %inc10 = add nuw nsw i32 %length.0, 1
  br label %do.body

do.end:                                           ; preds = %while.cond
  %inc1025 = add nuw nsw i32 %length.0, 1
  ret i32 %inc1025
}